target datalayout = "e-m:e-p270:32:32-p271:32:32-p272:64:64-i64:64-i128:128-f80:128-n8:16:32:64-S128"
target triple = "x86_64-pc-linux-gnu"

%"class.std::__cxx11::basic_string" = type { %"struct.std::__cxx11::basic_string<char>::_Alloc_hider", i64, %union.anon }
%"struct.std::__cxx11::basic_string<char>::_Alloc_hider" = type { ptr }
%union.anon = type { i64, [8 x i8] }
%"class.rocksdb::Slice" = type { ptr, i64 }
%"class.std::vector.428" = type { %"struct.std::_Vector_base.429" }
%"struct.std::_Vector_base.429" = type { %"struct.std::_Vector_base<unsigned int, std::allocator<unsigned int>>::_Vector_impl" }
%"struct.std::_Vector_base<unsigned int, std::allocator<unsigned int>>::_Vector_impl" = type { %"struct.std::_Vector_base<unsigned int, std::allocator<unsigned int>>::_Vector_impl_data" }
%"struct.std::_Vector_base<unsigned int, std::allocator<unsigned int>>::_Vector_impl_data" = type { ptr, ptr, ptr }
%"class.rocksdb::experimental::KeySegmentsExtractor" = type { ptr }
%"struct.rocksdb::experimental::KeySegmentsExtractor::Result" = type <{ %"class.std::vector.428", i8, [7 x i8] }>
%"class.rocksdb::experimental::(anonymous namespace)::DynamicCappedKeySegmentsExtractor" = type { %"class.rocksdb::experimental::KeySegmentsExtractor", %"class.std::vector.428", i32, %"class.std::__cxx11::basic_string" }

; Function Attrs: inlinehint mustprogress nounwind uwtable
define linkonce_odr noundef nonnull align 4 dereferenceable(4) ptr @_ZSt3minIjERKT_S2_S2_(ptr noundef nonnull align 4 dereferenceable(4) %0, ptr noundef nonnull align 4 dereferenceable(4) %1) #1 comdat {
  %3 = alloca ptr, align 8
  %4 = alloca ptr, align 8
  %5 = alloca ptr, align 8
  store ptr %0, ptr %4, align 8, !tbaa !635
  store ptr %1, ptr %5, align 8, !tbaa !635
  %6 = load ptr, ptr %5, align 8, !tbaa !635
  %7 = load i32, ptr %6, align 4, !tbaa !58
  %8 = load ptr, ptr %4, align 8, !tbaa !635
  %9 = load i32, ptr %8, align 4, !tbaa !58
  %10 = icmp ult i32 %7, %9
  br i1 %10, label %11, label %13

11:                                               ; preds = %2
  %12 = load ptr, ptr %5, align 8, !tbaa !635
  store ptr %12, ptr %3, align 8
  br label %15

13:                                               ; preds = %2
  %14 = load ptr, ptr %4, align 8, !tbaa !635
  store ptr %14, ptr %3, align 8
  br label %15

15:                                               ; preds = %13, %11
  %16 = load ptr, ptr %3, align 8
  ret ptr %16
}

; Function Attrs: mustprogress nounwind uwtable
define linkonce_odr noundef nonnull align 4 dereferenceable(4) ptr @_ZNSt6vectorIjSaIjEEixEm(ptr noundef nonnull align 8 dereferenceable(24) %0, i64 noundef %1) #3 comdat align 2 {
  %3 = alloca ptr, align 8
  %4 = alloca i64, align 8
  store ptr %0, ptr %3, align 8, !tbaa !636
  store i64 %1, ptr %4, align 8, !tbaa !4
  %5 = load ptr, ptr %3, align 8
  %6 = getelementptr inbounds nuw %"struct.std::_Vector_base.429", ptr %5, i32 0, i32 0
  %7 = getelementptr inbounds nuw %"struct.std::_Vector_base<unsigned int, std::allocator<unsigned int>>::_Vector_impl_data", ptr %6, i32 0, i32 0
  %8 = load ptr, ptr %7, align 8, !tbaa !638
  %9 = load i64, ptr %4, align 8, !tbaa !4
  %10 = getelementptr inbounds nuw i32, ptr %8, i64 %9
  ret ptr %10
}

; Function Attrs: mustprogress nounwind uwtable
define linkonce_odr noundef i64 @_ZNKSt6vectorIjSaIjEE4sizeEv(ptr noundef nonnull align 8 dereferenceable(24) %0) #3 comdat align 2 {
  %2 = alloca ptr, align 8
  store ptr %0, ptr %2, align 8, !tbaa !636
  %3 = load ptr, ptr %2, align 8
  %4 = getelementptr inbounds nuw %"struct.std::_Vector_base.429", ptr %3, i32 0, i32 0
  %5 = getelementptr inbounds nuw %"struct.std::_Vector_base<unsigned int, std::allocator<unsigned int>>::_Vector_impl_data", ptr %4, i32 0, i32 1
  %6 = load ptr, ptr %5, align 8, !tbaa !642
  %7 = getelementptr inbounds nuw %"struct.std::_Vector_base.429", ptr %3, i32 0, i32 0
  %8 = getelementptr inbounds nuw %"struct.std::_Vector_base<unsigned int, std::allocator<unsigned int>>::_Vector_impl_data", ptr %7, i32 0, i32 0
  %9 = load ptr, ptr %8, align 8, !tbaa !638
  %10 = ptrtoint ptr %6 to i64
  %11 = ptrtoint ptr %9 to i64
  %12 = sub i64 %10, %11
  %13 = sdiv exact i64 %12, 4
  ret i64 %13
}

; Function Attrs: mustprogress nounwind uwtable
define linkonce_odr noundef i64 @_ZNK7rocksdb5Slice4sizeEv(ptr noundef nonnull align 8 dereferenceable(16) %0) #3 comdat align 2 {
  %2 = alloca ptr, align 8
  store ptr %0, ptr %2, align 8, !tbaa !10
  %3 = load ptr, ptr %2, align 8
  %4 = getelementptr inbounds nuw %"class.rocksdb::Slice", ptr %3, i32 0, i32 1
  %5 = load i64, ptr %4, align 8, !tbaa !16
  ret i64 %5
}

; Function Attrs: mustprogress uwtable
define internal void @_ZNK7rocksdb12experimental12_GLOBAL__N_133DynamicCappedKeySegmentsExtractor7ExtractERKNS_5SliceENS0_20KeySegmentsExtractor7KeyKindEPNS6_6ResultE(ptr noundef nonnull align 8 dereferenceable(72) %0, ptr noundef nonnull align 8 dereferenceable(16) %1, i32 noundef %2, ptr noundef %3) unnamed_addr #5 align 2 {
  %5 = alloca ptr, align 8
  %6 = alloca ptr, align 8
  %7 = alloca i32, align 4
  %8 = alloca ptr, align 8
  %9 = alloca i32, align 4
  %10 = alloca i64, align 8
  store ptr %0, ptr %5, align 8, !tbaa !1992
  store ptr %1, ptr %6, align 8, !tbaa !10
  store i32 %2, ptr %7, align 4, !tbaa !1825
  store ptr %3, ptr %8, align 8, !tbaa !1827
  %11 = load ptr, ptr %5, align 8
  %12 = getelementptr inbounds nuw %"class.rocksdb::experimental::(anonymous namespace)::DynamicCappedKeySegmentsExtractor", ptr %11, i32 0, i32 1
  %13 = load ptr, ptr %8, align 8, !tbaa !1827
  %14 = getelementptr inbounds nuw %"struct.rocksdb::experimental::KeySegmentsExtractor::Result", ptr %13, i32 0, i32 0
  %15 = call noundef nonnull align 8 dereferenceable(24) ptr @_ZNSt6vectorIjSaIjEEaSERKS1_(ptr noundef nonnull align 8 dereferenceable(24) %14, ptr noundef nonnull align 8 dereferenceable(24) %12)
  call void @llvm.lifetime.start.p0(i64 4, ptr %9) #4
  %16 = load ptr, ptr %6, align 8, !tbaa !10
  %17 = call noundef i64 @_ZNK7rocksdb5Slice4sizeEv(ptr noundef nonnull align 8 dereferenceable(16) %16)
  %18 = trunc i64 %17 to i32
  store i32 %18, ptr %9, align 4, !tbaa !58
  %19 = load i32, ptr %9, align 4, !tbaa !58
  %20 = getelementptr inbounds nuw %"class.rocksdb::experimental::(anonymous namespace)::DynamicCappedKeySegmentsExtractor", ptr %11, i32 0, i32 2
  %21 = load i32, ptr %20, align 8, !tbaa !2005
  %22 = icmp ult i32 %19, %21
  br i1 %22, label %23, label %45

23:                                               ; preds = %4
  call void @llvm.lifetime.start.p0(i64 8, ptr %10) #4
  store i64 0, ptr %10, align 8, !tbaa !4
  br label %24

24:                                               ; preds = %41, %23
  %25 = load i64, ptr %10, align 8, !tbaa !4
  %26 = getelementptr inbounds nuw %"class.rocksdb::experimental::(anonymous namespace)::DynamicCappedKeySegmentsExtractor", ptr %11, i32 0, i32 1
  %27 = call noundef i64 @_ZNKSt6vectorIjSaIjEE4sizeEv(ptr noundef nonnull align 8 dereferenceable(24) %26) #4
  %28 = icmp ult i64 %25, %27
  br i1 %28, label %30, label %29

29:                                               ; preds = %24
  call void @llvm.lifetime.end.p0(i64 8, ptr %10) #4
  br label %44

30:                                               ; preds = %24
  %31 = load ptr, ptr %8, align 8, !tbaa !1827
  %32 = getelementptr inbounds nuw %"struct.rocksdb::experimental::KeySegmentsExtractor::Result", ptr %31, i32 0, i32 0
  %33 = load i64, ptr %10, align 8, !tbaa !4
  %34 = call noundef nonnull align 4 dereferenceable(4) ptr @_ZNSt6vectorIjSaIjEEixEm(ptr noundef nonnull align 8 dereferenceable(24) %32, i64 noundef %33) #4
  %35 = call noundef nonnull align 4 dereferenceable(4) ptr @_ZSt3minIjERKT_S2_S2_(ptr noundef nonnull align 4 dereferenceable(4) %9, ptr noundef nonnull align 4 dereferenceable(4) %34)
  %36 = load i32, ptr %35, align 4, !tbaa !58
  %37 = load ptr, ptr %8, align 8, !tbaa !1827
  %38 = getelementptr inbounds nuw %"struct.rocksdb::experimental::KeySegmentsExtractor::Result", ptr %37, i32 0, i32 0
  %39 = load i64, ptr %10, align 8, !tbaa !4
  %40 = call noundef nonnull align 4 dereferenceable(4) ptr @_ZNSt6vectorIjSaIjEEixEm(ptr noundef nonnull align 8 dereferenceable(24) %38, i64 noundef %39) #4
  store i32 %36, ptr %40, align 4, !tbaa !58
  br label %41

41:                                               ; preds = %30
  %42 = load i64, ptr %10, align 8, !tbaa !4
  %43 = add i64 %42, 1
  store i64 %43, ptr %10, align 8, !tbaa !4
  br label %24, !llvm.loop !2011

44:                                               ; preds = %29
  br label %45

45:                                               ; preds = %44, %4
  call void @llvm.lifetime.end.p0(i64 4, ptr %9) #4
  ret void
}