; Function Attrs: mustprogress uwtable
define internal void @_ZNK7rocksdb12experimental12_GLOBAL__N_133DynamicCappedKeySegmentsExtractor7ExtractERKNS_5SliceENS0_20KeySegmentsExtractor7KeyKindEPNS6_6ResultE(ptr noundef nonnull align 8 dereferenceable(72) %0, ptr noundef nonnull readonly align 8 captures(none) dereferenceable(16) %1, i32 %2, ptr noundef nonnull %3) unnamed_addr #4 align 2 {
  %5 = getelementptr inbounds nuw i8, ptr %0, i64 8
  %6 = tail call noundef nonnull align 8 dereferenceable(24) ptr @_ZNSt6vectorIjSaIjEEaSERKS1_(ptr noundef nonnull align 8 dereferenceable(24) %3, ptr noundef nonnull align 8 dereferenceable(24) %5)
  %7 = getelementptr inbounds nuw i8, ptr %1, i64 8
  %8 = load i64, ptr %7, align 8, !tbaa !20
  %9 = trunc i64 %8 to i32
  %10 = getelementptr inbounds nuw i8, ptr %0, i64 32
  %11 = load i32, ptr %10, align 8, !tbaa !680
  %12 = icmp ugt i32 %11, %9
  br i1 %12, label %.preheader, label %.loopexit

.preheader:                                       ; preds = %4
  %13 = getelementptr inbounds nuw i8, ptr %0, i64 16
  %14 = load ptr, ptr %13, align 8, !tbaa !976
  %15 = load ptr, ptr %5, align 8, !tbaa !668
  %.not = icmp eq ptr %14, %15
  br i1 %.not, label %.loopexit, label %.lr.ph

.lr.ph:                                           ; preds = %.preheader
  %16 = ptrtoint ptr %14 to i64
  %17 = ptrtoint ptr %15 to i64
  %18 = sub i64 %16, %17
  %19 = ashr exact i64 %18, 2
  %20 = load ptr, ptr %3, align 8, !tbaa !668
  %umax = tail call i64 @llvm.umax.i64(i64 %19, i64 1)
  br label %21

21:                                               ; preds = %.lr.ph, %21
  %.09 = phi i64 [ 0, %.lr.ph ], [ %24, %21 ]
  %22 = getelementptr inbounds nuw i32, ptr %20, i64 %.09
  %23 = load i32, ptr %22, align 4, !tbaa !102
  %.sroa.speculated = tail call i32 @llvm.umin.i32(i32 %23, i32 %9)
  store i32 %.sroa.speculated, ptr %22, align 4, !tbaa !102
  %24 = add nuw i64 %.09, 1
  %exitcond.not = icmp eq i64 %24, %umax
  br i1 %exitcond.not, label %.loopexit, label %21, !llvm.loop !981

.loopexit:                                        ; preds = %21, %.preheader, %4
  ret void
}